target datalayout = "e-m:e-p270:32:32-p271:32:32-p272:64:64-i64:64-i128:128-f80:128-n8:16:32:64-S128"
target triple = "x86_64-pc-linux-gnu"

%"struct.Luau::Type" = type { %"class.Luau::Variant", i8, [7 x i8], %"class.std::optional", ptr }
%"class.Luau::Variant" = type { i32, [4 x i8], [336 x i8] }
%"class.std::optional" = type { %"struct.std::_Optional_base" }
%"struct.std::_Optional_base" = type { %"struct.std::_Optional_payload" }
%"struct.std::_Optional_payload" = type { %"struct.std::_Optional_payload.base", [7 x i8] }
%"struct.std::_Optional_payload.base" = type { %"struct.std::_Optional_payload_base.base" }
%"struct.std::_Optional_payload_base.base" = type <{ %"union.std::_Optional_payload_base<std::__cxx11::basic_string<char>>::_Storage", i8 }>
%"union.std::_Optional_payload_base<std::__cxx11::basic_string<char>>::_Storage" = type { %"class.std::__cxx11::basic_string" }
%"class.std::__cxx11::basic_string" = type { %"struct.std::__cxx11::basic_string<char>::_Alloc_hider", i64, %union.anon }
%"struct.std::__cxx11::basic_string<char>::_Alloc_hider" = type { ptr }
%union.anon = type { i64, [8 x i8] }

; Function Attrs: mustprogress nounwind uwtable
define linkonce_odr dso_local noundef ptr @_ZNK4Luau7VariantIJNS_9Unifiable5BoundIPKNS_4TypeEEENS1_5ErrorIS5_EENS_8FreeTypeENS_11GenericTypeENS_13PrimitiveTypeENS_13SingletonTypeENS_11BlockedTypeENS_20PendingExpansionTypeENS_12FunctionTypeENS_9TableTypeENS_13MetatableTypeENS_9ClassTypeENS_7AnyTypeENS_9UnionTypeENS_16IntersectionTypeENS_8LazyTypeENS_11UnknownTypeENS_9NeverTypeENS_12NegationTypeENS_12NoRefineTypeENS_24TypeFunctionInstanceTypeEEE6get_ifISI_EEPKT_v(ptr noundef nonnull align 8 dereferenceable(344) %0) #5 comdat align 2 {
  %2 = alloca ptr, align 8
  %3 = alloca i32, align 4
  store ptr %0, ptr %2, align 8, !tbaa !244
  %4 = load ptr, ptr %2, align 8
  call void @llvm.lifetime.start.p0(i64 4, ptr %3) #17
  store i32 11, ptr %3, align 4, !tbaa !4
  %5 = getelementptr inbounds nuw %"class.Luau::Variant", ptr %4, i32 0, i32 0
  %6 = load i32, ptr %5, align 8, !tbaa !246
  %7 = icmp eq i32 11, %6
  br i1 %7, label %8, label %10

8:                                                ; preds = %1
  %9 = getelementptr inbounds nuw %"class.Luau::Variant", ptr %4, i32 0, i32 2
  br label %11

10:                                               ; preds = %1
  br label %11

11:                                               ; preds = %10, %8
  %12 = phi ptr [ %9, %8 ], [ null, %10 ]
  call void @llvm.lifetime.end.p0(i64 4, ptr %3) #17
  ret ptr %12
}

; Function Attrs: mustprogress uwtable
define linkonce_odr dso_local noundef ptr @_ZN4Luau6get_ifINS_9ClassTypeEJNS_9Unifiable5BoundIPKNS_4TypeEEENS2_5ErrorIS6_EENS_8FreeTypeENS_11GenericTypeENS_13PrimitiveTypeENS_13SingletonTypeENS_11BlockedTypeENS_20PendingExpansionTypeENS_12FunctionTypeENS_9TableTypeENS_13MetatableTypeES1_NS_7AnyTypeENS_9UnionTypeENS_16IntersectionTypeENS_8LazyTypeENS_11UnknownTypeENS_9NeverTypeENS_12NegationTypeENS_12NoRefineTypeENS_24TypeFunctionInstanceTypeEEEEPKT_PKNS_7VariantIJDpT0_EEE(ptr noundef %0) #2 comdat {
  %2 = alloca ptr, align 8
  store ptr %0, ptr %2, align 8, !tbaa !244
  %3 = load ptr, ptr %2, align 8, !tbaa !244
  %4 = icmp ne ptr %3, null
  br i1 %4, label %5, label %8

5:                                                ; preds = %1
  %6 = load ptr, ptr %2, align 8, !tbaa !244
  %7 = call noundef ptr @_ZNK4Luau7VariantIJNS_9Unifiable5BoundIPKNS_4TypeEEENS1_5ErrorIS5_EENS_8FreeTypeENS_11GenericTypeENS_13PrimitiveTypeENS_13SingletonTypeENS_11BlockedTypeENS_20PendingExpansionTypeENS_12FunctionTypeENS_9TableTypeENS_13MetatableTypeENS_9ClassTypeENS_7AnyTypeENS_9UnionTypeENS_16IntersectionTypeENS_8LazyTypeENS_11UnknownTypeENS_9NeverTypeENS_12NegationTypeENS_12NoRefineTypeENS_24TypeFunctionInstanceTypeEEE6get_ifISI_EEPKT_v(ptr noundef nonnull align 8 dereferenceable(344) %6)
  br label %9

8:                                                ; preds = %1
  br label %9

9:                                                ; preds = %8, %5
  %10 = phi ptr [ %7, %5 ], [ null, %8 ]
  ret ptr %10
}

; Function Attrs: mustprogress uwtable
define linkonce_odr dso_local noundef ptr @_ZN4Luau3getINS_9ClassTypeEEEPKT_PKNS_4TypeE(ptr noundef %0) #2 comdat {
  %2 = alloca ptr, align 8
  store ptr %0, ptr %2, align 8, !tbaa !15
  %3 = load ptr, ptr %2, align 8, !tbaa !15
  %4 = getelementptr inbounds nuw %"struct.Luau::Type", ptr %3, i32 0, i32 0
  %5 = call noundef ptr @_ZN4Luau6get_ifINS_9ClassTypeEJNS_9Unifiable5BoundIPKNS_4TypeEEENS2_5ErrorIS6_EENS_8FreeTypeENS_11GenericTypeENS_13PrimitiveTypeENS_13SingletonTypeENS_11BlockedTypeENS_20PendingExpansionTypeENS_12FunctionTypeENS_9TableTypeENS_13MetatableTypeES1_NS_7AnyTypeENS_9UnionTypeENS_16IntersectionTypeENS_8LazyTypeENS_11UnknownTypeENS_9NeverTypeENS_12NegationTypeENS_12NoRefineTypeENS_24TypeFunctionInstanceTypeEEEEPKT_PKNS_7VariantIJDpT0_EEE(ptr noundef %4)
  ret ptr %5
}

; Function Attrs: mustprogress uwtable
define dso_local noundef zeroext i1 @_ZN4Luau12Anyification14ignoreChildrenEPKNS_4TypeE(ptr noundef nonnull align 8 dereferenceable(513) %0, ptr noundef %1) unnamed_addr #2 align 2 {
  %3 = alloca i1, align 1
  %4 = alloca ptr, align 8
  %5 = alloca ptr, align 8
  store ptr %0, ptr %4, align 8, !tbaa !8
  store ptr %1, ptr %5, align 8, !tbaa !15
  %6 = load ptr, ptr %5, align 8, !tbaa !15
  %7 = call noundef ptr @_ZN4Luau3getINS_9ClassTypeEEEPKT_PKNS_4TypeE(ptr noundef %6)
  %8 = icmp ne ptr %7, null
  br i1 %8, label %9, label %10

9:                                                ; preds = %2
  store i1 true, ptr %3, align 1
  br label %15

10:                                               ; preds = %2
  %11 = load ptr, ptr %5, align 8, !tbaa !15
  %12 = getelementptr inbounds nuw %"struct.Luau::Type", ptr %11, i32 0, i32 1
  %13 = load i8, ptr %12, align 8, !tbaa !95, !range !103, !noundef !104
  %14 = trunc i8 %13 to i1
  store i1 %14, ptr %3, align 1
  br label %15

15:                                               ; preds = %10, %9
  %16 = load i1, ptr %3, align 1
  ret i1 %16
}