; Function Attrs: mustprogress nofree norecurse nosync nounwind willreturn memory(argmem: read) uwtable
define dso_local noundef zeroext i1 @_ZN4Luau12Anyification14ignoreChildrenEPKNS_4TypeE(ptr nonnull readnone align 8 captures(none) %0, ptr noundef readonly %1) unnamed_addr #6 align 2 {
  %.not.i.i = icmp eq ptr %1, null
  br i1 %.not.i.i, label %6, label %3

3:                                                ; preds = %2
  %4 = load i32, ptr %1, align 8, !tbaa !91
  %5 = icmp eq i32 %4, 11
  br i1 %5, label %_ZN4Luau3getINS_9ClassTypeEEEPKT_PKNS_4TypeE.exit, label %6

6:                                                ; preds = %3, %2
  %7 = getelementptr inbounds nuw i8, ptr %1, i64 344
  %8 = load i8, ptr %7, align 8, !tbaa !80, !range !88, !noundef !89
  %9 = trunc nuw i8 %8 to i1
  br label %_ZN4Luau3getINS_9ClassTypeEEEPKT_PKNS_4TypeE.exit

_ZN4Luau3getINS_9ClassTypeEEEPKT_PKNS_4TypeE.exit: ; preds = %3, %6
  %.0 = phi i1 [ %9, %6 ], [ true, %3 ]
  ret i1 %.0
}